; Function Attrs: nounwind uwtable
define internal void @meth_dealloc(ptr noundef %0) #0 {
  tail call void @PyObject_GC_UnTrack(ptr noundef %0) #5
  %2 = tail call ptr @PyThreadState_Get() #5
  %3 = getelementptr inbounds nuw i8, ptr %2, i64 52
  %4 = load i32, ptr %3, align 4, !tbaa !111
  %5 = icmp slt i32 %4, 51
  br i1 %5, label %6, label %12

6:                                                ; preds = %1
  %7 = getelementptr i8, ptr %0, i64 8
  %.val = load ptr, ptr %7, align 8, !tbaa !113
  %8 = getelementptr inbounds nuw i8, ptr %.val, i64 48
  %9 = load ptr, ptr %8, align 8, !tbaa !114
  %10 = icmp eq ptr %9, @meth_dealloc
  br i1 %10, label %11, label %12

11:                                               ; preds = %6
  tail call void @_PyTrash_thread_deposit_object(ptr noundef nonnull %2, ptr noundef nonnull %0) #5
  br label %53

12:                                               ; preds = %6, %1
  %13 = add i32 %4, -1
  store i32 %13, ptr %3, align 4, !tbaa !111
  %14 = getelementptr inbounds nuw i8, ptr %0, i64 40
  %15 = load ptr, ptr %14, align 8, !tbaa !21
  %.not = icmp eq ptr %15, null
  br i1 %.not, label %17, label %16

16:                                               ; preds = %12
  tail call void @PyObject_ClearWeakRefs(ptr noundef nonnull %0) #5
  br label %17

17:                                               ; preds = %16, %12
  %18 = getelementptr inbounds nuw i8, ptr %0, i64 16
  %19 = load ptr, ptr %18, align 8, !tbaa !22
  %20 = getelementptr inbounds nuw i8, ptr %19, i64 16
  %21 = load i32, ptr %20, align 8, !tbaa !4
  %22 = and i32 %21, 512
  %.not.i = icmp eq i32 %22, 0
  br i1 %.not.i, label %Py_XDECREF.exit, label %PyCFunction_GET_CLASS.exit

PyCFunction_GET_CLASS.exit:                       ; preds = %17
  %23 = getelementptr inbounds nuw i8, ptr %0, i64 56
  %24 = load ptr, ptr %23, align 8, !tbaa !15
  %.not.i18 = icmp eq ptr %24, null
  br i1 %.not.i18, label %Py_XDECREF.exit, label %25

25:                                               ; preds = %PyCFunction_GET_CLASS.exit
  %26 = load i32, ptr %24, align 8, !tbaa !14
  %.not.i.i = icmp sgt i32 %26, -1
  br i1 %.not.i.i, label %27, label %Py_XDECREF.exit

27:                                               ; preds = %25
  %28 = add nsw i32 %26, -1
  store i32 %28, ptr %24, align 8, !tbaa !14
  %29 = icmp eq i32 %28, 0
  br i1 %29, label %30, label %Py_XDECREF.exit

30:                                               ; preds = %27
  tail call void @_Py_Dealloc(ptr noundef nonnull %24) #5
  br label %Py_XDECREF.exit

Py_XDECREF.exit:                                  ; preds = %17, %PyCFunction_GET_CLASS.exit, %25, %27, %30
  %31 = getelementptr inbounds nuw i8, ptr %0, i64 24
  %32 = load ptr, ptr %31, align 8, !tbaa !23
  %.not.i19 = icmp eq ptr %32, null
  br i1 %.not.i19, label %Py_XDECREF.exit21, label %33

33:                                               ; preds = %Py_XDECREF.exit
  %34 = load i32, ptr %32, align 8, !tbaa !14
  %.not.i.i20 = icmp sgt i32 %34, -1
  br i1 %.not.i.i20, label %35, label %Py_XDECREF.exit21

35:                                               ; preds = %33
  %36 = add nsw i32 %34, -1
  store i32 %36, ptr %32, align 8, !tbaa !14
  %37 = icmp eq i32 %36, 0
  br i1 %37, label %38, label %Py_XDECREF.exit21

38:                                               ; preds = %35
  tail call void @_Py_Dealloc(ptr noundef nonnull %32) #5
  br label %Py_XDECREF.exit21

Py_XDECREF.exit21:                                ; preds = %Py_XDECREF.exit, %33, %35, %38
  %39 = getelementptr inbounds nuw i8, ptr %0, i64 32
  %40 = load ptr, ptr %39, align 8, !tbaa !24
  %.not.i22 = icmp eq ptr %40, null
  br i1 %.not.i22, label %Py_XDECREF.exit24, label %41

41:                                               ; preds = %Py_XDECREF.exit21
  %42 = load i32, ptr %40, align 8, !tbaa !14
  %.not.i.i23 = icmp sgt i32 %42, -1
  br i1 %.not.i.i23, label %43, label %Py_XDECREF.exit24

43:                                               ; preds = %41
  %44 = add nsw i32 %42, -1
  store i32 %44, ptr %40, align 8, !tbaa !14
  %45 = icmp eq i32 %44, 0
  br i1 %45, label %46, label %Py_XDECREF.exit24

46:                                               ; preds = %43
  tail call void @_Py_Dealloc(ptr noundef nonnull %40) #5
  br label %Py_XDECREF.exit24

Py_XDECREF.exit24:                                ; preds = %Py_XDECREF.exit21, %41, %43, %46
  tail call void @PyObject_GC_Del(ptr noundef nonnull %0) #5
  %47 = load i32, ptr %3, align 4, !tbaa !111
  %48 = add i32 %47, 1
  store i32 %48, ptr %3, align 4, !tbaa !111
  %49 = getelementptr inbounds nuw i8, ptr %2, i64 168
  %50 = load ptr, ptr %49, align 8, !tbaa !119
  %.not17 = icmp ne ptr %50, null
  %51 = icmp sgt i32 %48, 100
  %or.cond = select i1 %.not17, i1 %51, i1 false
  br i1 %or.cond, label %52, label %53

52:                                               ; preds = %Py_XDECREF.exit24
  tail call void @_PyTrash_thread_destroy_chain(ptr noundef nonnull %2) #5
  br label %53

53:                                               ; preds = %Py_XDECREF.exit24, %52, %11
  ret void
}